; Function Attrs: mustprogress nofree norecurse nosync nounwind memory(read, argmem: readwrite, inaccessiblemem: none) uwtable
define void @_ZN4base14OffsetAdjuster12AdjustOffsetERKSt6vectorINS0_10AdjustmentESaIS2_EEPm(ptr noundef nonnull readonly align 8 captures(none) dereferenceable(24) %0, ptr noundef captures(none) %1) local_unnamed_addr #3 align 2 {
  %3 = load i64, ptr %1, align 8, !tbaa !15
  %4 = icmp eq i64 %3, -1
  br i1 %4, label %24, label %5

5:                                                ; preds = %2
  %6 = load ptr, ptr %0, align 8, !tbaa !10
  %7 = getelementptr inbounds nuw i8, ptr %0, i64 8
  %8 = load ptr, ptr %7, align 8, !tbaa !10
  %.not1719 = icmp eq ptr %6, %8
  br i1 %.not1719, label %._crit_edge, label %.lr.ph

.lr.ph:                                           ; preds = %5, %15
  %.0921 = phi i32 [ %20, %15 ], [ 0, %5 ]
  %.sroa.010.020 = phi ptr [ %21, %15 ], [ %6, %5 ]
  %9 = load i64, ptr %.sroa.010.020, align 8, !tbaa !3
  %.not = icmp ugt i64 %3, %9
  br i1 %.not, label %10, label %._crit_edge.loopexit

10:                                               ; preds = %.lr.ph
  %11 = getelementptr inbounds nuw i8, ptr %.sroa.010.020, i64 8
  %12 = load i64, ptr %11, align 8, !tbaa !8
  %13 = add i64 %12, %9
  %14 = icmp ult i64 %3, %13
  br i1 %14, label %.sink.split, label %15

15:                                               ; preds = %10
  %16 = getelementptr inbounds nuw i8, ptr %.sroa.010.020, i64 16
  %17 = load i64, ptr %16, align 8, !tbaa !9
  %18 = sub i64 %12, %17
  %19 = trunc i64 %18 to i32
  %20 = add nsw i32 %.0921, %19
  %21 = getelementptr inbounds nuw i8, ptr %.sroa.010.020, i64 24
  %.not17 = icmp eq ptr %21, %8
  br i1 %.not17, label %._crit_edge.loopexit, label %.lr.ph, !llvm.loop !16

._crit_edge.loopexit:                             ; preds = %.lr.ph, %15
  %.09.lcssa.ph = phi i32 [ %20, %15 ], [ %.0921, %.lr.ph ]
  %22 = sext i32 %.09.lcssa.ph to i64
  br label %._crit_edge

._crit_edge:                                      ; preds = %._crit_edge.loopexit, %5
  %.09.lcssa = phi i64 [ 0, %5 ], [ %22, %._crit_edge.loopexit ]
  %23 = sub i64 %3, %.09.lcssa
  br label %.sink.split

.sink.split:                                      ; preds = %10, %._crit_edge
  %.sink = phi i64 [ %23, %._crit_edge ], [ -1, %10 ]
  store i64 %.sink, ptr %1, align 8, !tbaa !15
  br label %24

24:                                               ; preds = %.sink.split, %2
  ret void
}